target datalayout = "e-m:e-p270:32:32-p271:32:32-p272:64:64-i64:64-i128:128-f80:128-n8:16:32:64-S128"
target triple = "x86_64-pc-linux-gnu"

%"struct.OpenImageIO::v3_1_0::TypeDesc" = type { i8, i8, i8, i8, i32 }
%"class.OpenImageIO::v3_1_0::ImageSpec" = type { i32, i32, i32, i32, i32, i32, i32, i32, i32, i32, i32, i32, i32, i32, i32, i32, %"struct.OpenImageIO::v3_1_0::TypeDesc", %"class.std::vector", %"class.std::vector.4", i32, i32, i8, %"class.OpenImageIO::v3_1_0::ParamValueList" }
%"class.std::vector" = type { %"struct.std::_Vector_base" }
%"struct.std::_Vector_base" = type { %"struct.std::_Vector_base<OpenImageIO::v3_1_0::TypeDesc, std::allocator<OpenImageIO::v3_1_0::TypeDesc>>::_Vector_impl" }
%"struct.std::_Vector_base<OpenImageIO::v3_1_0::TypeDesc, std::allocator<OpenImageIO::v3_1_0::TypeDesc>>::_Vector_impl" = type { %"struct.std::_Vector_base<OpenImageIO::v3_1_0::TypeDesc, std::allocator<OpenImageIO::v3_1_0::TypeDesc>>::_Vector_impl_data" }
%"struct.std::_Vector_base<OpenImageIO::v3_1_0::TypeDesc, std::allocator<OpenImageIO::v3_1_0::TypeDesc>>::_Vector_impl_data" = type { ptr, ptr, ptr }
%"class.std::vector.4" = type { %"struct.std::_Vector_base.5" }
%"struct.std::_Vector_base.5" = type { %"struct.std::_Vector_base<std::__cxx11::basic_string<char>, std::allocator<std::__cxx11::basic_string<char>>>::_Vector_impl" }
%"struct.std::_Vector_base<std::__cxx11::basic_string<char>, std::allocator<std::__cxx11::basic_string<char>>>::_Vector_impl" = type { %"struct.std::_Vector_base<std::__cxx11::basic_string<char>, std::allocator<std::__cxx11::basic_string<char>>>::_Vector_impl_data" }
%"struct.std::_Vector_base<std::__cxx11::basic_string<char>, std::allocator<std::__cxx11::basic_string<char>>>::_Vector_impl_data" = type { ptr, ptr, ptr }
%"class.OpenImageIO::v3_1_0::ParamValueList" = type { %"class.std::vector.9" }
%"class.std::vector.9" = type { %"struct.std::_Vector_base.10" }
%"struct.std::_Vector_base.10" = type { %"struct.std::_Vector_base<OpenImageIO::v3_1_0::ParamValue, std::allocator<OpenImageIO::v3_1_0::ParamValue>>::_Vector_impl" }
%"struct.std::_Vector_base<OpenImageIO::v3_1_0::ParamValue, std::allocator<OpenImageIO::v3_1_0::ParamValue>>::_Vector_impl" = type { %"struct.std::_Vector_base<OpenImageIO::v3_1_0::ParamValue, std::allocator<OpenImageIO::v3_1_0::ParamValue>>::_Vector_impl_data" }
%"struct.std::_Vector_base<OpenImageIO::v3_1_0::ParamValue, std::allocator<OpenImageIO::v3_1_0::ParamValue>>::_Vector_impl_data" = type { ptr, ptr, ptr }
%"struct.OpenImageIO::v3_1_0::OpenEXRInput::PartInfo" = type { %"struct.std::atomic", %"class.OpenImageIO::v3_1_0::ImageSpec", i32, i32, i32, i32, i8, i8, i32, %"class.Imath_3_1::Box", %"class.Imath_3_1::Box", %"class.std::vector.41", %"class.std::vector.46" }
%"struct.std::atomic" = type { %"struct.std::__atomic_base" }
%"struct.std::__atomic_base" = type { i8 }
%"class.Imath_3_1::Box" = type { %"class.Imath_3_1::Vec2", %"class.Imath_3_1::Vec2" }
%"class.Imath_3_1::Vec2" = type { i32, i32 }
%"class.std::vector.41" = type { %"struct.std::_Vector_base.42" }
%"struct.std::_Vector_base.42" = type { %"struct.std::_Vector_base<OpenImageIO_v3_1_0_Imf__3_2_4::PixelType, std::allocator<OpenImageIO_v3_1_0_Imf__3_2_4::PixelType>>::_Vector_impl" }
%"struct.std::_Vector_base<OpenImageIO_v3_1_0_Imf__3_2_4::PixelType, std::allocator<OpenImageIO_v3_1_0_Imf__3_2_4::PixelType>>::_Vector_impl" = type { %"struct.std::_Vector_base<OpenImageIO_v3_1_0_Imf__3_2_4::PixelType, std::allocator<OpenImageIO_v3_1_0_Imf__3_2_4::PixelType>>::_Vector_impl_data" }
%"struct.std::_Vector_base<OpenImageIO_v3_1_0_Imf__3_2_4::PixelType, std::allocator<OpenImageIO_v3_1_0_Imf__3_2_4::PixelType>>::_Vector_impl_data" = type { ptr, ptr, ptr }
%"class.std::vector.46" = type { %"struct.std::_Vector_base.47" }
%"struct.std::_Vector_base.47" = type { %"struct.std::_Vector_base<int, std::allocator<int>>::_Vector_impl" }
%"struct.std::_Vector_base<int, std::allocator<int>>::_Vector_impl" = type { %"struct.std::_Vector_base<int, std::allocator<int>>::_Vector_impl_data" }
%"struct.std::_Vector_base<int, std::allocator<int>>::_Vector_impl_data" = type { ptr, ptr, ptr }

@stderr = external global ptr, align 8
@.str.53 = private unnamed_addr constant [127 x i8] c"generated/home/dtcxzyw/WorkSpace/Projects/compilers/llvm-opt-benchmark/bench/oiio/OpenImageIO/src/openexr.imageio/exrinput.cpp\00", align 1
@.str.132 = private unnamed_addr constant [56 x i8] c"%s:%u: %s: Assertion '%s' failed: Unknown levelmode %d\0A\00", align 1
@__FUNCTION__._ZNK11OpenImageIO6v3_1_012OpenEXRInput8PartInfo14compute_mipresEiRNS0_9ImageSpecE = private unnamed_addr constant [15 x i8] c"compute_mipres\00", align 1
@.str.133 = private unnamed_addr constant [2 x i8] c"0\00", align 1

; Function Attrs: inlinehint mustprogress nounwind uwtable
define linkonce_odr hidden void @_ZN9Imath_3_14Vec2IiEC2ERKS1_(ptr noundef nonnull align 4 dereferenceable(8) %0, ptr noundef nonnull align 4 dereferenceable(8) %1) unnamed_addr #0 comdat align 2 {
  %3 = alloca ptr, align 8
  %4 = alloca ptr, align 8
  store ptr %0, ptr %3, align 8, !tbaa !655
  store ptr %1, ptr %4, align 8, !tbaa !655
  %5 = load ptr, ptr %3, align 8
  %6 = getelementptr inbounds nuw %"class.Imath_3_1::Vec2", ptr %5, i32 0, i32 0
  %7 = load ptr, ptr %4, align 8, !tbaa !655
  %8 = getelementptr inbounds nuw %"class.Imath_3_1::Vec2", ptr %7, i32 0, i32 0
  %9 = load i32, ptr %8, align 4, !tbaa !657
  store i32 %9, ptr %6, align 4, !tbaa !657
  %10 = getelementptr inbounds nuw %"class.Imath_3_1::Vec2", ptr %5, i32 0, i32 1
  %11 = load ptr, ptr %4, align 8, !tbaa !655
  %12 = getelementptr inbounds nuw %"class.Imath_3_1::Vec2", ptr %11, i32 0, i32 1
  %13 = load i32, ptr %12, align 4, !tbaa !658
  store i32 %13, ptr %10, align 4, !tbaa !658
  ret void
}

; Function Attrs: inlinehint mustprogress nounwind uwtable
define linkonce_odr hidden void @_ZN9Imath_3_13BoxINS_4Vec2IiEEEC2ERKS3_(ptr noundef nonnull align 4 dereferenceable(16) %0, ptr noundef nonnull align 4 dereferenceable(16) %1) unnamed_addr #0 comdat align 2 {
  %3 = alloca ptr, align 8
  %4 = alloca ptr, align 8
  store ptr %0, ptr %3, align 8, !tbaa !296
  store ptr %1, ptr %4, align 8, !tbaa !296
  %5 = load ptr, ptr %3, align 8
  %6 = getelementptr inbounds nuw %"class.Imath_3_1::Box", ptr %5, i32 0, i32 0
  %7 = load ptr, ptr %4, align 8, !tbaa !296
  %8 = getelementptr inbounds nuw %"class.Imath_3_1::Box", ptr %7, i32 0, i32 0
  call void @_ZN9Imath_3_14Vec2IiEC2ERKS1_(ptr noundef nonnull align 4 dereferenceable(8) %6, ptr noundef nonnull align 4 dereferenceable(8) %8) #5
  %9 = getelementptr inbounds nuw %"class.Imath_3_1::Box", ptr %5, i32 0, i32 1
  %10 = load ptr, ptr %4, align 8, !tbaa !296
  %11 = getelementptr inbounds nuw %"class.Imath_3_1::Box", ptr %10, i32 0, i32 1
  call void @_ZN9Imath_3_14Vec2IiEC2ERKS1_(ptr noundef nonnull align 4 dereferenceable(8) %9, ptr noundef nonnull align 4 dereferenceable(8) %11) #5
  ret void
}

; Function Attrs: inlinehint mustprogress nounwind uwtable
define linkonce_odr noundef nonnull align 4 dereferenceable(4) ptr @_ZSt3maxIiERKT_S2_S2_(ptr noundef nonnull align 4 dereferenceable(4) %0, ptr noundef nonnull align 4 dereferenceable(4) %1) #0 comdat {
  %3 = alloca ptr, align 8
  %4 = alloca ptr, align 8
  %5 = alloca ptr, align 8
  store ptr %0, ptr %4, align 8, !tbaa !299
  store ptr %1, ptr %5, align 8, !tbaa !299
  %6 = load ptr, ptr %4, align 8, !tbaa !299
  %7 = load i32, ptr %6, align 4, !tbaa !14
  %8 = load ptr, ptr %5, align 8, !tbaa !299
  %9 = load i32, ptr %8, align 4, !tbaa !14
  %10 = icmp slt i32 %7, %9
  br i1 %10, label %11, label %13

11:                                               ; preds = %2
  %12 = load ptr, ptr %5, align 8, !tbaa !299
  store ptr %12, ptr %3, align 8
  br label %15

13:                                               ; preds = %2
  %14 = load ptr, ptr %4, align 8, !tbaa !299
  store ptr %14, ptr %3, align 8
  br label %15

15:                                               ; preds = %13, %11
  %16 = load ptr, ptr %3, align 8
  ret ptr %16
}

; Function Attrs: mustprogress uwtable
define hidden void @_ZNK11OpenImageIO6v3_1_012OpenEXRInput8PartInfo14compute_mipresEiRNS0_9ImageSpecE(ptr noundef nonnull align 8 dereferenceable(272) %0, i32 noundef %1, ptr noundef nonnull align 8 dereferenceable(160) %2) #8 align 2 {
  %4 = alloca ptr, align 8
  %5 = alloca i32, align 4
  %6 = alloca ptr, align 8
  %7 = alloca i32, align 4
  %8 = alloca i32, align 4
  %9 = alloca i32, align 4
  %10 = alloca i32, align 4
  %11 = alloca i32, align 4
  %12 = alloca %"class.Imath_3_1::Box", align 4
  %13 = alloca %"class.Imath_3_1::Box", align 4
  store ptr %0, ptr %4, align 8, !tbaa !164
  store i32 %1, ptr %5, align 4, !tbaa !14
  store ptr %2, ptr %6, align 8, !tbaa !38
  %14 = load ptr, ptr %4, align 8
  %15 = getelementptr inbounds nuw %"struct.OpenImageIO::v3_1_0::OpenEXRInput::PartInfo", ptr %14, i32 0, i32 4
  %16 = load i32, ptr %15, align 8, !tbaa !185
  %17 = icmp eq i32 %16, 0
  br i1 %17, label %18, label %19

18:                                               ; preds = %3
  br label %154

19:                                               ; preds = %3
  call void @llvm.lifetime.start.p0(i64 4, ptr %7) #5
  %20 = getelementptr inbounds nuw %"struct.OpenImageIO::v3_1_0::OpenEXRInput::PartInfo", ptr %14, i32 0, i32 2
  %21 = load i32, ptr %20, align 8, !tbaa !196
  store i32 %21, ptr %7, align 4, !tbaa !14
  call void @llvm.lifetime.start.p0(i64 4, ptr %8) #5
  %22 = getelementptr inbounds nuw %"struct.OpenImageIO::v3_1_0::OpenEXRInput::PartInfo", ptr %14, i32 0, i32 3
  %23 = load i32, ptr %22, align 4, !tbaa !197
  store i32 %23, ptr %8, align 4, !tbaa !14
  %24 = getelementptr inbounds nuw %"struct.OpenImageIO::v3_1_0::OpenEXRInput::PartInfo", ptr %14, i32 0, i32 4
  %25 = load i32, ptr %24, align 8, !tbaa !185
  %26 = icmp eq i32 %25, 1
  br i1 %26, label %27, label %58

27:                                               ; preds = %19
  call void @llvm.lifetime.start.p0(i64 4, ptr %9) #5
  %28 = load i32, ptr %5, align 4, !tbaa !14
  store i32 %28, ptr %9, align 4, !tbaa !14
  br label %29

29:                                               ; preds = %54, %27
  %30 = load i32, ptr %9, align 4, !tbaa !14
  %31 = icmp ne i32 %30, 0
  br i1 %31, label %33, label %32

32:                                               ; preds = %29
  call void @llvm.lifetime.end.p0(i64 4, ptr %9) #5
  br label %57

33:                                               ; preds = %29
  %34 = getelementptr inbounds nuw %"struct.OpenImageIO::v3_1_0::OpenEXRInput::PartInfo", ptr %14, i32 0, i32 5
  %35 = load i32, ptr %34, align 4, !tbaa !219
  %36 = icmp eq i32 %35, 0
  br i1 %36, label %37, label %42

37:                                               ; preds = %33
  %38 = load i32, ptr %7, align 4, !tbaa !14
  %39 = sdiv i32 %38, 2
  store i32 %39, ptr %7, align 4, !tbaa !14
  %40 = load i32, ptr %8, align 4, !tbaa !14
  %41 = sdiv i32 %40, 2
  store i32 %41, ptr %8, align 4, !tbaa !14
  br label %49

42:                                               ; preds = %33
  %43 = load i32, ptr %7, align 4, !tbaa !14
  %44 = add nsw i32 %43, 1
  %45 = sdiv i32 %44, 2
  store i32 %45, ptr %7, align 4, !tbaa !14
  %46 = load i32, ptr %8, align 4, !tbaa !14
  %47 = add nsw i32 %46, 1
  %48 = sdiv i32 %47, 2
  store i32 %48, ptr %8, align 4, !tbaa !14
  br label %49

49:                                               ; preds = %42, %37
  call void @llvm.lifetime.start.p0(i64 4, ptr %10) #5
  store i32 1, ptr %10, align 4, !tbaa !14
  %50 = call noundef nonnull align 4 dereferenceable(4) ptr @_ZSt3maxIiERKT_S2_S2_(ptr noundef nonnull align 4 dereferenceable(4) %10, ptr noundef nonnull align 4 dereferenceable(4) %7)
  %51 = load i32, ptr %50, align 4, !tbaa !14
  store i32 %51, ptr %7, align 4, !tbaa !14
  call void @llvm.lifetime.end.p0(i64 4, ptr %10) #5
  call void @llvm.lifetime.start.p0(i64 4, ptr %11) #5
  store i32 1, ptr %11, align 4, !tbaa !14
  %52 = call noundef nonnull align 4 dereferenceable(4) ptr @_ZSt3maxIiERKT_S2_S2_(ptr noundef nonnull align 4 dereferenceable(4) %11, ptr noundef nonnull align 4 dereferenceable(4) %8)
  %53 = load i32, ptr %52, align 4, !tbaa !14
  store i32 %53, ptr %8, align 4, !tbaa !14
  call void @llvm.lifetime.end.p0(i64 4, ptr %11) #5
  br label %54

54:                                               ; preds = %49
  %55 = load i32, ptr %9, align 4, !tbaa !14
  %56 = add nsw i32 %55, -1
  store i32 %56, ptr %9, align 4, !tbaa !14
  br label %29, !llvm.loop !378

57:                                               ; preds = %32
  br label %69

58:                                               ; preds = %19
  %59 = getelementptr inbounds nuw %"struct.OpenImageIO::v3_1_0::OpenEXRInput::PartInfo", ptr %14, i32 0, i32 4
  %60 = load i32, ptr %59, align 8, !tbaa !185
  %61 = icmp eq i32 %60, 2
  br i1 %61, label %62, label %63

62:                                               ; preds = %58
  br label %68

63:                                               ; preds = %58
  %64 = load ptr, ptr @stderr, align 8, !tbaa !132
  %65 = getelementptr inbounds nuw %"struct.OpenImageIO::v3_1_0::OpenEXRInput::PartInfo", ptr %14, i32 0, i32 4
  %66 = load i32, ptr %65, align 8, !tbaa !185
  %67 = call i32 (ptr, ptr, ...) @fprintf(ptr noundef %64, ptr noundef @.str.132, ptr noundef @.str.53, i32 noundef 965, ptr noundef @__FUNCTION__._ZNK11OpenImageIO6v3_1_012OpenEXRInput8PartInfo14compute_mipresEiRNS0_9ImageSpecE, ptr noundef @.str.133, i32 noundef %66) #5
  br label %68

68:                                               ; preds = %63, %62
  br label %69

69:                                               ; preds = %68, %57
  %70 = load i32, ptr %7, align 4, !tbaa !14
  %71 = load ptr, ptr %6, align 8, !tbaa !38
  %72 = getelementptr inbounds nuw %"class.OpenImageIO::v3_1_0::ImageSpec", ptr %71, i32 0, i32 3
  store i32 %70, ptr %72, align 4, !tbaa !379
  %73 = load i32, ptr %8, align 4, !tbaa !14
  %74 = load ptr, ptr %6, align 8, !tbaa !38
  %75 = getelementptr inbounds nuw %"class.OpenImageIO::v3_1_0::ImageSpec", ptr %74, i32 0, i32 4
  store i32 %73, ptr %75, align 8, !tbaa !380
  call void @llvm.lifetime.start.p0(i64 16, ptr %12) #5
  %76 = getelementptr inbounds nuw %"struct.OpenImageIO::v3_1_0::OpenEXRInput::PartInfo", ptr %14, i32 0, i32 9
  call void @_ZN9Imath_3_13BoxINS_4Vec2IiEEEC2ERKS3_(ptr noundef nonnull align 4 dereferenceable(16) %12, ptr noundef nonnull align 4 dereferenceable(16) %76) #5
  call void @llvm.lifetime.start.p0(i64 16, ptr %13) #5
  %77 = getelementptr inbounds nuw %"struct.OpenImageIO::v3_1_0::OpenEXRInput::PartInfo", ptr %14, i32 0, i32 10
  call void @_ZN9Imath_3_13BoxINS_4Vec2IiEEEC2ERKS3_(ptr noundef nonnull align 4 dereferenceable(16) %13, ptr noundef nonnull align 4 dereferenceable(16) %77) #5
  %78 = getelementptr inbounds nuw %"class.Imath_3_1::Box", ptr %12, i32 0, i32 0
  %79 = getelementptr inbounds nuw %"class.Imath_3_1::Vec2", ptr %78, i32 0, i32 0
  %80 = load i32, ptr %79, align 4, !tbaa !381
  %81 = load ptr, ptr %6, align 8, !tbaa !38
  %82 = getelementptr inbounds nuw %"class.OpenImageIO::v3_1_0::ImageSpec", ptr %81, i32 0, i32 0
  store i32 %80, ptr %82, align 8, !tbaa !382
  %83 = getelementptr inbounds nuw %"class.Imath_3_1::Box", ptr %12, i32 0, i32 0
  %84 = getelementptr inbounds nuw %"class.Imath_3_1::Vec2", ptr %83, i32 0, i32 1
  %85 = load i32, ptr %84, align 4, !tbaa !383
  %86 = load ptr, ptr %6, align 8, !tbaa !38
  %87 = getelementptr inbounds nuw %"class.OpenImageIO::v3_1_0::ImageSpec", ptr %86, i32 0, i32 1
  store i32 %85, ptr %87, align 4, !tbaa !384
  %88 = load i32, ptr %5, align 4, !tbaa !14
  %89 = icmp eq i32 %88, 0
  br i1 %89, label %90, label %121

90:                                               ; preds = %69
  %91 = getelementptr inbounds nuw %"class.Imath_3_1::Box", ptr %13, i32 0, i32 0
  %92 = getelementptr inbounds nuw %"class.Imath_3_1::Vec2", ptr %91, i32 0, i32 0
  %93 = load i32, ptr %92, align 4, !tbaa !381
  %94 = load ptr, ptr %6, align 8, !tbaa !38
  %95 = getelementptr inbounds nuw %"class.OpenImageIO::v3_1_0::ImageSpec", ptr %94, i32 0, i32 6
  store i32 %93, ptr %95, align 8, !tbaa !385
  %96 = getelementptr inbounds nuw %"class.Imath_3_1::Box", ptr %13, i32 0, i32 0
  %97 = getelementptr inbounds nuw %"class.Imath_3_1::Vec2", ptr %96, i32 0, i32 1
  %98 = load i32, ptr %97, align 4, !tbaa !383
  %99 = load ptr, ptr %6, align 8, !tbaa !38
  %100 = getelementptr inbounds nuw %"class.OpenImageIO::v3_1_0::ImageSpec", ptr %99, i32 0, i32 7
  store i32 %98, ptr %100, align 4, !tbaa !386
  %101 = getelementptr inbounds nuw %"class.Imath_3_1::Box", ptr %13, i32 0, i32 1
  %102 = getelementptr inbounds nuw %"class.Imath_3_1::Vec2", ptr %101, i32 0, i32 0
  %103 = load i32, ptr %102, align 4, !tbaa !387
  %104 = getelementptr inbounds nuw %"class.Imath_3_1::Box", ptr %13, i32 0, i32 0
  %105 = getelementptr inbounds nuw %"class.Imath_3_1::Vec2", ptr %104, i32 0, i32 0
  %106 = load i32, ptr %105, align 4, !tbaa !381
  %107 = sub nsw i32 %103, %106
  %108 = add nsw i32 %107, 1
  %109 = load ptr, ptr %6, align 8, !tbaa !38
  %110 = getelementptr inbounds nuw %"class.OpenImageIO::v3_1_0::ImageSpec", ptr %109, i32 0, i32 9
  store i32 %108, ptr %110, align 4, !tbaa !388
  %111 = getelementptr inbounds nuw %"class.Imath_3_1::Box", ptr %13, i32 0, i32 1
  %112 = getelementptr inbounds nuw %"class.Imath_3_1::Vec2", ptr %111, i32 0, i32 1
  %113 = load i32, ptr %112, align 4, !tbaa !389
  %114 = getelementptr inbounds nuw %"class.Imath_3_1::Box", ptr %13, i32 0, i32 0
  %115 = getelementptr inbounds nuw %"class.Imath_3_1::Vec2", ptr %114, i32 0, i32 1
  %116 = load i32, ptr %115, align 4, !tbaa !383
  %117 = sub nsw i32 %113, %116
  %118 = add nsw i32 %117, 1
  %119 = load ptr, ptr %6, align 8, !tbaa !38
  %120 = getelementptr inbounds nuw %"class.OpenImageIO::v3_1_0::ImageSpec", ptr %119, i32 0, i32 10
  store i32 %118, ptr %120, align 8, !tbaa !390
  br label %142

121:                                              ; preds = %69
  %122 = load ptr, ptr %6, align 8, !tbaa !38
  %123 = getelementptr inbounds nuw %"class.OpenImageIO::v3_1_0::ImageSpec", ptr %122, i32 0, i32 0
  %124 = load i32, ptr %123, align 8, !tbaa !382
  %125 = load ptr, ptr %6, align 8, !tbaa !38
  %126 = getelementptr inbounds nuw %"class.OpenImageIO::v3_1_0::ImageSpec", ptr %125, i32 0, i32 6
  store i32 %124, ptr %126, align 8, !tbaa !385
  %127 = load ptr, ptr %6, align 8, !tbaa !38
  %128 = getelementptr inbounds nuw %"class.OpenImageIO::v3_1_0::ImageSpec", ptr %127, i32 0, i32 1
  %129 = load i32, ptr %128, align 4, !tbaa !384
  %130 = load ptr, ptr %6, align 8, !tbaa !38
  %131 = getelementptr inbounds nuw %"class.OpenImageIO::v3_1_0::ImageSpec", ptr %130, i32 0, i32 7
  store i32 %129, ptr %131, align 4, !tbaa !386
  %132 = load ptr, ptr %6, align 8, !tbaa !38
  %133 = getelementptr inbounds nuw %"class.OpenImageIO::v3_1_0::ImageSpec", ptr %132, i32 0, i32 3
  %134 = load i32, ptr %133, align 4, !tbaa !379
  %135 = load ptr, ptr %6, align 8, !tbaa !38
  %136 = getelementptr inbounds nuw %"class.OpenImageIO::v3_1_0::ImageSpec", ptr %135, i32 0, i32 9
  store i32 %134, ptr %136, align 4, !tbaa !388
  %137 = load ptr, ptr %6, align 8, !tbaa !38
  %138 = getelementptr inbounds nuw %"class.OpenImageIO::v3_1_0::ImageSpec", ptr %137, i32 0, i32 4
  %139 = load i32, ptr %138, align 8, !tbaa !380
  %140 = load ptr, ptr %6, align 8, !tbaa !38
  %141 = getelementptr inbounds nuw %"class.OpenImageIO::v3_1_0::ImageSpec", ptr %140, i32 0, i32 10
  store i32 %139, ptr %141, align 8, !tbaa !390
  br label %142

142:                                              ; preds = %121, %90
  %143 = getelementptr inbounds nuw %"struct.OpenImageIO::v3_1_0::OpenEXRInput::PartInfo", ptr %14, i32 0, i32 6
  %144 = load i8, ptr %143, align 8, !tbaa !224, !range !143, !noundef !144
  %145 = trunc i8 %144 to i1
  br i1 %145, label %146, label %153

146:                                              ; preds = %142
  %147 = load i32, ptr %7, align 4, !tbaa !14
  %148 = load ptr, ptr %6, align 8, !tbaa !38
  %149 = getelementptr inbounds nuw %"class.OpenImageIO::v3_1_0::ImageSpec", ptr %148, i32 0, i32 9
  store i32 %147, ptr %149, align 4, !tbaa !388
  %150 = load i32, ptr %7, align 4, !tbaa !14
  %151 = load ptr, ptr %6, align 8, !tbaa !38
  %152 = getelementptr inbounds nuw %"class.OpenImageIO::v3_1_0::ImageSpec", ptr %151, i32 0, i32 10
  store i32 %150, ptr %152, align 8, !tbaa !390
  br label %153

153:                                              ; preds = %146, %142
  call void @llvm.lifetime.end.p0(i64 16, ptr %13) #5
  call void @llvm.lifetime.end.p0(i64 16, ptr %12) #5
  call void @llvm.lifetime.end.p0(i64 4, ptr %8) #5
  call void @llvm.lifetime.end.p0(i64 4, ptr %7) #5
  br label %154

154:                                              ; preds = %153, %18
  ret void
}