; Function Attrs: mustprogress nofree nounwind uwtable
define hidden void @_ZNK11OpenImageIO6v3_1_012OpenEXRInput8PartInfo14compute_mipresEiRNS0_9ImageSpecE(ptr noundef nonnull readonly align 8 captures(none) dereferenceable(272) %0, i32 noundef %1, ptr noundef nonnull writeonly align 8 captures(none) dereferenceable(160) %2) local_unnamed_addr #16 align 2 {
  %4 = getelementptr inbounds nuw i8, ptr %0, i64 176
  %5 = load i32, ptr %4, align 8, !tbaa !220
  %6 = icmp eq i32 %5, 0
  br i1 %6, label %50, label %7

7:                                                ; preds = %3
  %8 = getelementptr inbounds nuw i8, ptr %0, i64 168
  %9 = load i32, ptr %8, align 8, !tbaa !233
  %10 = getelementptr inbounds nuw i8, ptr %0, i64 172
  %11 = load i32, ptr %10, align 4, !tbaa !234
  switch i32 %5, label %19 [
    i32 1, label %.preheader
    i32 2, label %.loopexit
  ]

.preheader:                                       ; preds = %7
  %.not47 = icmp eq i32 %1, 0
  br i1 %.not47, label %.loopexit, label %.lr.ph

.lr.ph:                                           ; preds = %.preheader
  %12 = getelementptr inbounds nuw i8, ptr %0, i64 180
  %13 = load i32, ptr %12, align 4, !tbaa !250
  %.fr53 = freeze i32 %13
  %14 = icmp eq i32 %.fr53, 0
  br i1 %14, label %.lr.ph.split.us, label %.lr.ph.split

.lr.ph.split.us:                                  ; preds = %.lr.ph, %.lr.ph.split.us
  %.050.us = phi i32 [ %15, %.lr.ph.split.us ], [ %1, %.lr.ph ]
  %.04349.us = phi i32 [ %.sroa.speculated29.us, %.lr.ph.split.us ], [ %9, %.lr.ph ]
  %.04448.us = phi i32 [ %.sroa.speculated.us, %.lr.ph.split.us ], [ %11, %.lr.ph ]
  %.1.us = sdiv i32 %.04349.us, 2
  %storemerge.us = sdiv i32 %.04448.us, 2
  %.sroa.speculated29.us = tail call i32 @llvm.smax.i32(i32 %.1.us, i32 1)
  %.sroa.speculated.us = tail call i32 @llvm.smax.i32(i32 %storemerge.us, i32 1)
  %15 = add nsw i32 %.050.us, -1
  %.not.us = icmp eq i32 %15, 0
  br i1 %.not.us, label %.loopexit, label %.lr.ph.split.us, !llvm.loop !326

.lr.ph.split:                                     ; preds = %.lr.ph, %.lr.ph.split
  %.050 = phi i32 [ %18, %.lr.ph.split ], [ %1, %.lr.ph ]
  %.04349 = phi i32 [ %.sroa.speculated29, %.lr.ph.split ], [ %9, %.lr.ph ]
  %.04448 = phi i32 [ %.sroa.speculated, %.lr.ph.split ], [ %11, %.lr.ph ]
  %16 = add nsw i32 %.04349, 1
  %17 = add nsw i32 %.04448, 1
  %.1 = sdiv i32 %16, 2
  %storemerge = sdiv i32 %17, 2
  %.sroa.speculated29 = tail call i32 @llvm.smax.i32(i32 %.1, i32 1)
  %.sroa.speculated = tail call i32 @llvm.smax.i32(i32 %storemerge, i32 1)
  %18 = add nsw i32 %.050, -1
  %.not = icmp eq i32 %18, 0
  br i1 %.not, label %.loopexit, label %.lr.ph.split, !llvm.loop !326

19:                                               ; preds = %7
  %20 = load ptr, ptr @stderr, align 8, !tbaa !131
  %21 = tail call i32 (ptr, ptr, ...) @fprintf(ptr noundef %20, ptr noundef nonnull @.str.132, ptr noundef nonnull @.str.53, i32 noundef 965, ptr noundef nonnull @__FUNCTION__._ZNK11OpenImageIO6v3_1_012OpenEXRInput8PartInfo14compute_mipresEiRNS0_9ImageSpecE, ptr noundef nonnull @.str.133, i32 noundef %5) #37
  br label %.loopexit

.loopexit:                                        ; preds = %.lr.ph.split, %.lr.ph.split.us, %.preheader, %7, %19
  %.145 = phi i32 [ %11, %19 ], [ %11, %7 ], [ %11, %.preheader ], [ %.sroa.speculated.us, %.lr.ph.split.us ], [ %.sroa.speculated, %.lr.ph.split ]
  %.2 = phi i32 [ %9, %19 ], [ %9, %7 ], [ %9, %.preheader ], [ %.sroa.speculated29.us, %.lr.ph.split.us ], [ %.sroa.speculated29, %.lr.ph.split ]
  %22 = getelementptr inbounds nuw i8, ptr %2, i64 12
  store i32 %.2, ptr %22, align 4, !tbaa !327
  %23 = getelementptr inbounds nuw i8, ptr %2, i64 16
  store i32 %.145, ptr %23, align 8, !tbaa !328
  %24 = getelementptr inbounds nuw i8, ptr %0, i64 192
  %25 = load i32, ptr %24, align 8, !tbaa !221
  %26 = getelementptr inbounds nuw i8, ptr %0, i64 196
  %27 = load i32, ptr %26, align 4, !tbaa !222
  %28 = getelementptr inbounds nuw i8, ptr %0, i64 208
  %29 = load i32, ptr %28, align 8, !tbaa !221
  %30 = getelementptr inbounds nuw i8, ptr %0, i64 212
  %31 = load i32, ptr %30, align 4, !tbaa !222
  %32 = getelementptr inbounds nuw i8, ptr %0, i64 216
  %33 = load i32, ptr %32, align 8, !tbaa !221
  %34 = getelementptr inbounds nuw i8, ptr %0, i64 220
  %35 = load i32, ptr %34, align 4, !tbaa !222
  store i32 %25, ptr %2, align 8, !tbaa !329
  %36 = getelementptr inbounds nuw i8, ptr %2, i64 4
  store i32 %27, ptr %36, align 4, !tbaa !330
  %37 = icmp eq i32 %1, 0
  br i1 %37, label %38, label %41

38:                                               ; preds = %.loopexit
  %reass.sub = sub i32 %33, %29
  %39 = add i32 %reass.sub, 1
  %reass.sub54 = sub i32 %35, %31
  %40 = add i32 %reass.sub54, 1
  br label %41

41:                                               ; preds = %.loopexit, %38
  %.sink56 = phi i32 [ %29, %38 ], [ %25, %.loopexit ]
  %.sink = phi i32 [ %31, %38 ], [ %27, %.loopexit ]
  %.2.sink = phi i32 [ %39, %38 ], [ %.2, %.loopexit ]
  %.145.sink = phi i32 [ %40, %38 ], [ %.145, %.loopexit ]
  %42 = getelementptr inbounds nuw i8, ptr %2, i64 24
  store i32 %.sink56, ptr %42, align 8, !tbaa !331
  %43 = getelementptr inbounds nuw i8, ptr %2, i64 28
  store i32 %.sink, ptr %43, align 4, !tbaa !332
  %44 = getelementptr inbounds nuw i8, ptr %2, i64 36
  store i32 %.2.sink, ptr %44, align 4, !tbaa !333
  %45 = getelementptr inbounds nuw i8, ptr %2, i64 40
  store i32 %.145.sink, ptr %45, align 8, !tbaa !334
  %46 = getelementptr inbounds nuw i8, ptr %0, i64 184
  %47 = load i8, ptr %46, align 8, !tbaa !259, !range !127, !noundef !128
  %48 = trunc nuw i8 %47 to i1
  br i1 %48, label %49, label %50

49:                                               ; preds = %41
  store i32 %.2, ptr %44, align 4, !tbaa !333
  store i32 %.2, ptr %45, align 8, !tbaa !334
  br label %50

50:                                               ; preds = %41, %49, %3
  ret void
}